; Function Attrs: mustprogress nounwind uwtable
define internal void @"_ZNSt17_Function_handlerIFvvEZN4llvm13DWARFVerifier19verifyAbbrevSectionEPKNS1_16DWARFDebugAbbrevEE3$_1E9_M_invokeERKSt9_Any_data"(ptr nocapture noundef nonnull readonly align 8 dereferenceable(16) %0) #0 align 2 {
  %.val = load ptr, ptr %0, align 8
  %2 = load ptr, ptr %.val, align 8
  %3 = load ptr, ptr %2, align 8
  %4 = tail call noundef nonnull align 8 dereferenceable(48) ptr @_ZN4llvm9WithColor5errorERNS_11raw_ostreamENS_9StringRefEb(ptr noundef nonnull align 8 dereferenceable(48) %3, ptr nonnull @.str.145, i64 0, i1 noundef zeroext false) #26
  %5 = getelementptr inbounds nuw i8, ptr %4, i64 24
  %6 = load ptr, ptr %5, align 8
  %7 = getelementptr inbounds nuw i8, ptr %4, i64 32
  %8 = load ptr, ptr %7, align 8
  %9 = ptrtoint ptr %6 to i64
  %10 = ptrtoint ptr %8 to i64
  %11 = sub i64 %9, %10
  %12 = icmp ult i64 %11, 43
  br i1 %12, label %13, label %15

13:                                               ; preds = %1
  %14 = tail call noundef nonnull align 8 dereferenceable(48) ptr @_ZN4llvm11raw_ostream5writeEPKcm(ptr noundef nonnull align 8 dereferenceable(48) %4, ptr noundef nonnull @.str.182, i64 noundef 43) #26
  br label %_ZN4llvm11raw_ostreamlsEPKc.exit.i.i.i

15:                                               ; preds = %1
  tail call void @llvm.memcpy.p0.p0.i64(ptr noundef nonnull align 1 dereferenceable(43) %8, ptr noundef nonnull align 1 dereferenceable(43) @.str.182, i64 43, i1 false)
  %16 = load ptr, ptr %7, align 8
  %17 = getelementptr inbounds i8, ptr %16, i64 43
  store ptr %17, ptr %7, align 8
  br label %_ZN4llvm11raw_ostreamlsEPKc.exit.i.i.i

_ZN4llvm11raw_ostreamlsEPKc.exit.i.i.i:           ; preds = %15, %13
  %.0.i.i.i.i.i = phi ptr [ %14, %13 ], [ %4, %15 ]
  %18 = getelementptr inbounds nuw i8, ptr %.val, i64 8
  %19 = load ptr, ptr %18, align 8
  %20 = load i16, ptr %19, align 8
  %21 = zext i16 %20 to i32
  %22 = tail call { ptr, i64 } @_ZN4llvm5dwarf15AttributeStringEj(i32 noundef %21) #26
  %23 = extractvalue { ptr, i64 } %22, 0
  %24 = extractvalue { ptr, i64 } %22, 1
  %25 = getelementptr inbounds nuw i8, ptr %.0.i.i.i.i.i, i64 24
  %26 = load ptr, ptr %25, align 8
  %27 = getelementptr inbounds nuw i8, ptr %.0.i.i.i.i.i, i64 32
  %28 = load ptr, ptr %27, align 8
  %29 = ptrtoint ptr %26 to i64
  %30 = ptrtoint ptr %28 to i64
  %31 = sub i64 %29, %30
  %32 = icmp ugt i64 %24, %31
  br i1 %32, label %33, label %35

33:                                               ; preds = %_ZN4llvm11raw_ostreamlsEPKc.exit.i.i.i
  %34 = tail call noundef nonnull align 8 dereferenceable(48) ptr @_ZN4llvm11raw_ostream5writeEPKcm(ptr noundef nonnull align 8 dereferenceable(48) %.0.i.i.i.i.i, ptr noundef %23, i64 noundef %24) #26
  %.phi.trans.insert.i.i.i = getelementptr inbounds nuw i8, ptr %34, i64 32
  %.pre.i.i.i = load ptr, ptr %.phi.trans.insert.i.i.i, align 8
  br label %_ZN4llvm11raw_ostreamlsENS_9StringRefE.exit.i.i.i

35:                                               ; preds = %_ZN4llvm11raw_ostreamlsEPKc.exit.i.i.i
  %.not.i.i.i.i = icmp eq i64 %24, 0
  br i1 %.not.i.i.i.i, label %_ZN4llvm11raw_ostreamlsENS_9StringRefE.exit.i.i.i, label %36

36:                                               ; preds = %35
  tail call void @llvm.memcpy.p0.p0.i64(ptr align 1 %28, ptr align 1 %23, i64 %24, i1 false)
  %37 = load ptr, ptr %27, align 8
  %38 = getelementptr inbounds i8, ptr %37, i64 %24
  store ptr %38, ptr %27, align 8
  br label %_ZN4llvm11raw_ostreamlsENS_9StringRefE.exit.i.i.i

_ZN4llvm11raw_ostreamlsENS_9StringRefE.exit.i.i.i: ; preds = %36, %35, %33
  %39 = phi ptr [ %.pre.i.i.i, %33 ], [ %38, %36 ], [ %28, %35 ]
  %.0.i.i.i.i = phi ptr [ %34, %33 ], [ %.0.i.i.i.i.i, %36 ], [ %.0.i.i.i.i.i, %35 ]
  %40 = getelementptr inbounds nuw i8, ptr %.0.i.i.i.i, i64 24
  %41 = load ptr, ptr %40, align 8
  %42 = ptrtoint ptr %41 to i64
  %43 = ptrtoint ptr %39 to i64
  %44 = sub i64 %42, %43
  %45 = icmp ult i64 %44, 13
  br i1 %45, label %46, label %48

46:                                               ; preds = %_ZN4llvm11raw_ostreamlsENS_9StringRefE.exit.i.i.i
  %47 = tail call noundef nonnull align 8 dereferenceable(48) ptr @_ZN4llvm11raw_ostream5writeEPKcm(ptr noundef nonnull align 8 dereferenceable(48) %.0.i.i.i.i, ptr noundef nonnull @.str.183, i64 noundef 13) #26
  br label %"_ZSt10__invoke_rIvRZN4llvm13DWARFVerifier19verifyAbbrevSectionEPKNS0_16DWARFDebugAbbrevEE3$_1JEENSt9enable_ifIX16is_invocable_r_vIT_T0_DpT1_EES8_E4typeEOS9_DpOSA_.exit"

48:                                               ; preds = %_ZN4llvm11raw_ostreamlsENS_9StringRefE.exit.i.i.i
  %49 = getelementptr inbounds nuw i8, ptr %.0.i.i.i.i, i64 32
  tail call void @llvm.memcpy.p0.p0.i64(ptr noundef nonnull align 1 dereferenceable(13) %39, ptr noundef nonnull align 1 dereferenceable(13) @.str.183, i64 13, i1 false)
  %50 = load ptr, ptr %49, align 8
  %51 = getelementptr inbounds i8, ptr %50, i64 13
  store ptr %51, ptr %49, align 8
  br label %"_ZSt10__invoke_rIvRZN4llvm13DWARFVerifier19verifyAbbrevSectionEPKNS0_16DWARFDebugAbbrevEE3$_1JEENSt9enable_ifIX16is_invocable_r_vIT_T0_DpT1_EES8_E4typeEOS9_DpOSA_.exit"

"_ZSt10__invoke_rIvRZN4llvm13DWARFVerifier19verifyAbbrevSectionEPKNS0_16DWARFDebugAbbrevEE3$_1JEENSt9enable_ifIX16is_invocable_r_vIT_T0_DpT1_EES8_E4typeEOS9_DpOSA_.exit": ; preds = %46, %48
  %52 = getelementptr inbounds nuw i8, ptr %.val, i64 16
  %53 = load ptr, ptr %52, align 8
  %54 = load ptr, ptr %2, align 8
  tail call void @_ZNK4llvm28DWARFAbbreviationDeclaration4dumpERNS_11raw_ostreamE(ptr noundef nonnull align 8 dereferenceable(160) %53, ptr noundef nonnull align 8 dereferenceable(48) %54) #26
  ret void
}